target datalayout = "e-m:e-p270:32:32-p271:32:32-p272:64:64-i64:64-i128:128-f80:128-n8:16:32:64-S128"
target triple = "x86_64-pc-linux-gnu"

%struct.Curl_hash = type { ptr, ptr, ptr, ptr, i64, i64 }
%struct.Curl_llist = type { ptr, ptr, ptr, i64 }

@Curl_cfree = external global ptr, align 8

; Function Attrs: nounwind uwtable
define hidden void @Curl_hash_destroy(ptr noundef %0) #0 {
  %2 = alloca ptr, align 8
  %3 = alloca i64, align 8
  store ptr %0, ptr %2, align 8, !tbaa !3
  br label %4

4:                                                ; preds = %1
  br label %5

5:                                                ; preds = %4
  %6 = load ptr, ptr %2, align 8, !tbaa !3
  %7 = getelementptr inbounds nuw %struct.Curl_hash, ptr %6, i32 0, i32 0
  %8 = load ptr, ptr %7, align 8, !tbaa !11
  %9 = icmp ne ptr %8, null
  br i1 %9, label %10, label %37

10:                                               ; preds = %5
  call void @llvm.lifetime.start.p0(i64 8, ptr %3) #5
  store i64 0, ptr %3, align 8, !tbaa !8
  br label %11

11:                                               ; preds = %24, %10
  %12 = load i64, ptr %3, align 8, !tbaa !8
  %13 = load ptr, ptr %2, align 8, !tbaa !3
  %14 = getelementptr inbounds nuw %struct.Curl_hash, ptr %13, i32 0, i32 4
  %15 = load i64, ptr %14, align 8, !tbaa !18
  %16 = icmp ult i64 %12, %15
  br i1 %16, label %17, label %27

17:                                               ; preds = %11
  %18 = load ptr, ptr %2, align 8, !tbaa !3
  %19 = getelementptr inbounds nuw %struct.Curl_hash, ptr %18, i32 0, i32 0
  %20 = load ptr, ptr %19, align 8, !tbaa !11
  %21 = load i64, ptr %3, align 8, !tbaa !8
  %22 = getelementptr inbounds nuw %struct.Curl_llist, ptr %20, i64 %21
  %23 = load ptr, ptr %2, align 8, !tbaa !3
  call void @Curl_llist_destroy(ptr noundef %22, ptr noundef %23)
  br label %24

24:                                               ; preds = %17
  %25 = load i64, ptr %3, align 8, !tbaa !8
  %26 = add i64 %25, 1
  store i64 %26, ptr %3, align 8, !tbaa !8
  br label %11, !llvm.loop !34

27:                                               ; preds = %11
  br label %28

28:                                               ; preds = %27
  %29 = load ptr, ptr @Curl_cfree, align 8, !tbaa !10
  %30 = load ptr, ptr %2, align 8, !tbaa !3
  %31 = getelementptr inbounds nuw %struct.Curl_hash, ptr %30, i32 0, i32 0
  %32 = load ptr, ptr %31, align 8, !tbaa !11
  call void %29(ptr noundef %32)
  %33 = load ptr, ptr %2, align 8, !tbaa !3
  %34 = getelementptr inbounds nuw %struct.Curl_hash, ptr %33, i32 0, i32 0
  store ptr null, ptr %34, align 8, !tbaa !11
  br label %35

35:                                               ; preds = %28
  br label %36

36:                                               ; preds = %35
  call void @llvm.lifetime.end.p0(i64 8, ptr %3) #5
  br label %37

37:                                               ; preds = %36, %5
  %38 = load ptr, ptr %2, align 8, !tbaa !3
  %39 = getelementptr inbounds nuw %struct.Curl_hash, ptr %38, i32 0, i32 5
  store i64 0, ptr %39, align 8, !tbaa !17
  %40 = load ptr, ptr %2, align 8, !tbaa !3
  %41 = getelementptr inbounds nuw %struct.Curl_hash, ptr %40, i32 0, i32 4
  store i64 0, ptr %41, align 8, !tbaa !18
  ret void
}