; Function Attrs: nounwind uwtable
define hidden void @Curl_hash_destroy(ptr noundef %0) local_unnamed_addr #1 {
  %2 = load ptr, ptr %0, align 8, !tbaa !3
  %.not = icmp eq ptr %2, null
  br i1 %.not, label %12, label %.preheader

.preheader:                                       ; preds = %1
  %3 = getelementptr inbounds nuw i8, ptr %0, i64 32
  %4 = load i64, ptr %3, align 8, !tbaa !14
  %.not11 = icmp eq i64 %4, 0
  br i1 %.not11, label %._crit_edge, label %.lr.ph

.lr.ph:                                           ; preds = %.preheader, %.lr.ph
  %.010 = phi i64 [ %7, %.lr.ph ], [ 0, %.preheader ]
  %5 = load ptr, ptr %0, align 8, !tbaa !3
  %6 = getelementptr inbounds nuw %struct.Curl_llist, ptr %5, i64 %.010
  tail call void @Curl_llist_destroy(ptr noundef %6, ptr noundef nonnull %0) #9
  %7 = add nuw i64 %.010, 1
  %8 = load i64, ptr %3, align 8, !tbaa !14
  %9 = icmp ult i64 %7, %8
  br i1 %9, label %.lr.ph, label %._crit_edge.loopexit, !llvm.loop !27

._crit_edge.loopexit:                             ; preds = %.lr.ph
  %.pre = load ptr, ptr %0, align 8, !tbaa !3
  br label %._crit_edge

._crit_edge:                                      ; preds = %._crit_edge.loopexit, %.preheader
  %10 = phi ptr [ %.pre, %._crit_edge.loopexit ], [ %2, %.preheader ]
  %11 = load ptr, ptr @Curl_cfree, align 8, !tbaa !15
  tail call void %11(ptr noundef %10) #9
  store ptr null, ptr %0, align 8, !tbaa !3
  br label %12

12:                                               ; preds = %._crit_edge, %1
  %13 = getelementptr inbounds nuw i8, ptr %0, i64 32
  tail call void @llvm.memset.p0.i64(ptr noundef nonnull align 8 dereferenceable(16) %13, i8 0, i64 16, i1 false)
  ret void
}